target datalayout = "e-m:e-p270:32:32-p271:32:32-p272:64:64-i64:64-i128:128-f80:128-n8:16:32:64-S128"
target triple = "x86_64-pc-linux-gnu"

; Function Attrs: inlinehint nounwind uwtable
define internal i64 @mbedtls_ct_if(i64 noundef %0, i64 noundef %1, i64 noundef %2) #2 {
  %4 = alloca i64, align 8
  %5 = alloca i64, align 8
  %6 = alloca i64, align 8
  store i64 %0, ptr %4, align 8, !tbaa !7
  store i64 %1, ptr %5, align 8, !tbaa !7
  store i64 %2, ptr %6, align 8, !tbaa !7
  %7 = load i64, ptr %4, align 8, !tbaa !7
  %8 = load i64, ptr %5, align 8, !tbaa !7
  %9 = load i64, ptr %6, align 8, !tbaa !7
  %10 = call { i64, i64, i64 } asm sideeffect "and  $0, $1                      \0A\09not  $0                              \0A\09and  $0, $2                      \0A\09or   $1, $2                            \0A\09", "=&{di},=&{si},=&{ax},0,1,2,~{dirflag},~{fpsr},~{flags}"(i64 %7, i64 %8, i64 %9) #5, !srcloc !26
  %11 = extractvalue { i64, i64, i64 } %10, 0
  %12 = extractvalue { i64, i64, i64 } %10, 1
  %13 = extractvalue { i64, i64, i64 } %10, 2
  store i64 %11, ptr %4, align 8, !tbaa !7
  store i64 %12, ptr %5, align 8, !tbaa !7
  store i64 %13, ptr %6, align 8, !tbaa !7
  %14 = load i64, ptr %6, align 8, !tbaa !7
  ret i64 %14
}

; Function Attrs: inlinehint nounwind uwtable
define internal i64 @mbedtls_ct_uint_lt(i64 noundef %0, i64 noundef %1) #2 {
  %3 = alloca i64, align 8
  %4 = alloca i64, align 8
  %5 = alloca i64, align 8
  store i64 %0, ptr %3, align 8, !tbaa !7
  store i64 %1, ptr %4, align 8, !tbaa !7
  call void @llvm.lifetime.start.p0(i64 8, ptr %5) #5
  %6 = load i64, ptr %3, align 8, !tbaa !7
  %7 = load i64, ptr %4, align 8, !tbaa !7
  %8 = call { i64, i64, i64 } asm sideeffect "mov $1, $0                                 \0A\09xor $2, $0                                 \0A\09sub $2, $1                                 \0A\09and $0, $2                                 \0A\09not $0                                       \0A\09and $0, $1                                 \0A\09or $2, $1                                  \0A\09sar $$63, $1                                  \0A\09", "=&{ax},=&{di},=&{si},1,2,~{dirflag},~{fpsr},~{flags}"(i64 %6, i64 %7) #5, !srcloc !17
  %9 = extractvalue { i64, i64, i64 } %8, 0
  %10 = extractvalue { i64, i64, i64 } %8, 1
  %11 = extractvalue { i64, i64, i64 } %8, 2
  store i64 %9, ptr %5, align 8, !tbaa !7
  store i64 %10, ptr %3, align 8, !tbaa !7
  store i64 %11, ptr %4, align 8, !tbaa !7
  %12 = load i64, ptr %3, align 8, !tbaa !7
  call void @llvm.lifetime.end.p0(i64 8, ptr %5) #5
  ret i64 %12
}

; Function Attrs: inlinehint nounwind uwtable
define internal i32 @mbedtls_ct_uint_if_else_0(i64 noundef %0, i32 noundef %1) #2 {
  %3 = alloca i64, align 8
  %4 = alloca i32, align 4
  store i64 %0, ptr %3, align 8, !tbaa !7
  store i32 %1, ptr %4, align 4, !tbaa !11
  %5 = load i64, ptr %3, align 8, !tbaa !7
  %6 = load i32, ptr %4, align 4, !tbaa !11
  %7 = zext i32 %6 to i64
  %8 = and i64 %5, %7
  %9 = trunc i64 %8 to i32
  ret i32 %9
}

; Function Attrs: inlinehint nounwind uwtable
define internal i32 @mbedtls_ct_uint_if(i64 noundef %0, i32 noundef %1, i32 noundef %2) #2 {
  %4 = alloca i64, align 8
  %5 = alloca i32, align 4
  %6 = alloca i32, align 4
  store i64 %0, ptr %4, align 8, !tbaa !7
  store i32 %1, ptr %5, align 4, !tbaa !11
  store i32 %2, ptr %6, align 4, !tbaa !11
  %7 = load i64, ptr %4, align 8, !tbaa !7
  %8 = load i32, ptr %5, align 4, !tbaa !11
  %9 = zext i32 %8 to i64
  %10 = load i32, ptr %6, align 4, !tbaa !11
  %11 = zext i32 %10 to i64
  %12 = call i64 @mbedtls_ct_if(i64 noundef %7, i64 noundef %9, i64 noundef %11)
  %13 = trunc i64 %12 to i32
  ret i32 %13
}

; Function Attrs: inlinehint nounwind uwtable
define internal i64 @mbedtls_ct_uint_gt(i64 noundef %0, i64 noundef %1) #2 {
  %3 = alloca i64, align 8
  %4 = alloca i64, align 8
  store i64 %0, ptr %3, align 8, !tbaa !7
  store i64 %1, ptr %4, align 8, !tbaa !7
  %5 = load i64, ptr %4, align 8, !tbaa !7
  %6 = load i64, ptr %3, align 8, !tbaa !7
  %7 = call i64 @mbedtls_ct_uint_lt(i64 noundef %5, i64 noundef %6)
  ret i64 %7
}

; Function Attrs: nounwind uwtable
define hidden void @mbedtls_ct_memmove_left(ptr noundef %0, i64 noundef %1, i64 noundef %2) #0 {
  %4 = alloca ptr, align 8
  %5 = alloca i64, align 8
  %6 = alloca i64, align 8
  %7 = alloca ptr, align 8
  %8 = alloca i64, align 8
  %9 = alloca i32, align 4
  %10 = alloca i64, align 8
  %11 = alloca i64, align 8
  %12 = alloca i8, align 1
  %13 = alloca i8, align 1
  store ptr %0, ptr %4, align 8, !tbaa !3
  store i64 %1, ptr %5, align 8, !tbaa !7
  store i64 %2, ptr %6, align 8, !tbaa !7
  call void @llvm.lifetime.start.p0(i64 8, ptr %7) #5
  %14 = load ptr, ptr %4, align 8, !tbaa !3
  store ptr %14, ptr %7, align 8, !tbaa !9
  call void @llvm.lifetime.start.p0(i64 8, ptr %8) #5
  store i64 0, ptr %8, align 8, !tbaa !7
  br label %15

15:                                               ; preds = %69, %3
  %16 = load i64, ptr %8, align 8, !tbaa !7
  %17 = load i64, ptr %5, align 8, !tbaa !7
  %18 = icmp ult i64 %16, %17
  br i1 %18, label %20, label %19

19:                                               ; preds = %15
  store i32 2, ptr %9, align 4
  call void @llvm.lifetime.end.p0(i64 8, ptr %8) #5
  br label %72

20:                                               ; preds = %15
  call void @llvm.lifetime.start.p0(i64 8, ptr %10) #5
  %21 = load i64, ptr %5, align 8, !tbaa !7
  %22 = load i64, ptr %6, align 8, !tbaa !7
  %23 = sub i64 %21, %22
  %24 = load i64, ptr %8, align 8, !tbaa !7
  %25 = call i64 @mbedtls_ct_uint_gt(i64 noundef %23, i64 noundef %24)
  store i64 %25, ptr %10, align 8, !tbaa !7
  call void @llvm.lifetime.start.p0(i64 8, ptr %11) #5
  store i64 0, ptr %11, align 8, !tbaa !7
  br label %26

26:                                               ; preds = %52, %20
  %27 = load i64, ptr %11, align 8, !tbaa !7
  %28 = load i64, ptr %5, align 8, !tbaa !7
  %29 = sub i64 %28, 1
  %30 = icmp ult i64 %27, %29
  br i1 %30, label %32, label %31

31:                                               ; preds = %26
  store i32 5, ptr %9, align 4
  call void @llvm.lifetime.end.p0(i64 8, ptr %11) #5
  br label %55

32:                                               ; preds = %26
  call void @llvm.lifetime.start.p0(i64 1, ptr %12) #5
  %33 = load ptr, ptr %7, align 8, !tbaa !9
  %34 = load i64, ptr %11, align 8, !tbaa !7
  %35 = getelementptr inbounds nuw i8, ptr %33, i64 %34
  %36 = load volatile i8, ptr %35, align 1, !tbaa !13
  store i8 %36, ptr %12, align 1, !tbaa !13
  call void @llvm.lifetime.start.p0(i64 1, ptr %13) #5
  %37 = load ptr, ptr %7, align 8, !tbaa !9
  %38 = load i64, ptr %11, align 8, !tbaa !7
  %39 = add i64 %38, 1
  %40 = getelementptr inbounds nuw i8, ptr %37, i64 %39
  %41 = load volatile i8, ptr %40, align 1, !tbaa !13
  store i8 %41, ptr %13, align 1, !tbaa !13
  %42 = load i64, ptr %10, align 8, !tbaa !7
  %43 = load i8, ptr %12, align 1, !tbaa !13
  %44 = zext i8 %43 to i32
  %45 = load i8, ptr %13, align 1, !tbaa !13
  %46 = zext i8 %45 to i32
  %47 = call i32 @mbedtls_ct_uint_if(i64 noundef %42, i32 noundef %44, i32 noundef %46)
  %48 = trunc i32 %47 to i8
  %49 = load ptr, ptr %7, align 8, !tbaa !9
  %50 = load i64, ptr %11, align 8, !tbaa !7
  %51 = getelementptr inbounds nuw i8, ptr %49, i64 %50
  store volatile i8 %48, ptr %51, align 1, !tbaa !13
  call void @llvm.lifetime.end.p0(i64 1, ptr %13) #5
  call void @llvm.lifetime.end.p0(i64 1, ptr %12) #5
  br label %52

52:                                               ; preds = %32
  %53 = load i64, ptr %11, align 8, !tbaa !7
  %54 = add i64 %53, 1
  store i64 %54, ptr %11, align 8, !tbaa !7
  br label %26, !llvm.loop !18

55:                                               ; preds = %31
  %56 = load i64, ptr %10, align 8, !tbaa !7
  %57 = load ptr, ptr %7, align 8, !tbaa !9
  %58 = load i64, ptr %5, align 8, !tbaa !7
  %59 = sub i64 %58, 1
  %60 = getelementptr inbounds nuw i8, ptr %57, i64 %59
  %61 = load volatile i8, ptr %60, align 1, !tbaa !13
  %62 = zext i8 %61 to i32
  %63 = call i32 @mbedtls_ct_uint_if_else_0(i64 noundef %56, i32 noundef %62)
  %64 = trunc i32 %63 to i8
  %65 = load ptr, ptr %7, align 8, !tbaa !9
  %66 = load i64, ptr %5, align 8, !tbaa !7
  %67 = sub i64 %66, 1
  %68 = getelementptr inbounds nuw i8, ptr %65, i64 %67
  store volatile i8 %64, ptr %68, align 1, !tbaa !13
  call void @llvm.lifetime.end.p0(i64 8, ptr %10) #5
  br label %69

69:                                               ; preds = %55
  %70 = load i64, ptr %8, align 8, !tbaa !7
  %71 = add i64 %70, 1
  store i64 %71, ptr %8, align 8, !tbaa !7
  br label %15, !llvm.loop !19

72:                                               ; preds = %19
  call void @llvm.lifetime.end.p0(i64 8, ptr %7) #5
  ret void
}