; Function Attrs: nounwind uwtable
define hidden void @mbedtls_ct_memmove_left(ptr noundef %0, i64 noundef %1, i64 noundef %2) local_unnamed_addr #1 {
  %.not = icmp eq i64 %1, 0
  br i1 %.not, label %._crit_edge30, label %.lr.ph29

.lr.ph29:                                         ; preds = %3
  %4 = sub i64 %1, %2
  %5 = add i64 %1, -1
  %.not31 = icmp eq i64 %5, 0
  %6 = getelementptr inbounds nuw i8, ptr %0, i64 %5
  br i1 %.not31, label %.lr.ph29.split, label %.lr.ph.us

.lr.ph.us:                                        ; preds = %.lr.ph29, %._crit_edge.us
  %.027.us = phi i64 [ %23, %._crit_edge.us ], [ 0, %.lr.ph29 ]
  %7 = tail call { i64, i64, i64 } asm sideeffect "mov $1, $0                                 \0A\09xor $2, $0                                 \0A\09sub $2, $1                                 \0A\09and $0, $2                                 \0A\09not $0                                       \0A\09and $0, $1                                 \0A\09or $2, $1                                  \0A\09sar $$63, $1                                  \0A\09", "=&{ax},=&{di},=&{si},1,2,~{dirflag},~{fpsr},~{flags}"(i64 %.027.us, i64 %4) #3, !srcloc !8
  %8 = extractvalue { i64, i64, i64 } %7, 1
  br label %9

9:                                                ; preds = %.lr.ph.us, %9
  %.02326.us = phi i64 [ 0, %.lr.ph.us ], [ %12, %9 ]
  %10 = getelementptr inbounds nuw i8, ptr %0, i64 %.02326.us
  %11 = load volatile i8, ptr %10, align 1, !tbaa !3
  %12 = add nuw i64 %.02326.us, 1
  %13 = getelementptr inbounds nuw i8, ptr %0, i64 %12
  %14 = load volatile i8, ptr %13, align 1, !tbaa !3
  %15 = zext i8 %11 to i64
  %16 = zext i8 %14 to i64
  %17 = tail call { i64, i64, i64 } asm sideeffect "and  $0, $1                      \0A\09not  $0                              \0A\09and  $0, $2                      \0A\09or   $1, $2                            \0A\09", "=&{di},=&{si},=&{ax},0,1,2,~{dirflag},~{fpsr},~{flags}"(i64 %8, i64 range(i64 0, 256) %15, i64 range(i64 0, 256) %16) #3, !srcloc !10
  %18 = extractvalue { i64, i64, i64 } %17, 2
  %19 = trunc i64 %18 to i8
  store volatile i8 %19, ptr %10, align 1, !tbaa !3
  %exitcond.not = icmp eq i64 %12, %5
  br i1 %exitcond.not, label %._crit_edge.us, label %9, !llvm.loop !11

._crit_edge.us:                                   ; preds = %9
  %20 = load volatile i8, ptr %6, align 1, !tbaa !3
  %21 = trunc i64 %8 to i8
  %22 = and i8 %20, %21
  store volatile i8 %22, ptr %6, align 1, !tbaa !3
  %23 = add nuw i64 %.027.us, 1
  %exitcond33.not = icmp eq i64 %23, %1
  br i1 %exitcond33.not, label %._crit_edge30, label %.lr.ph.us, !llvm.loop !12

._crit_edge30:                                    ; preds = %._crit_edge.us, %.lr.ph29.split, %3
  ret void

.lr.ph29.split:                                   ; preds = %.lr.ph29
  %24 = tail call { i64, i64, i64 } asm sideeffect "mov $1, $0                                 \0A\09xor $2, $0                                 \0A\09sub $2, $1                                 \0A\09and $0, $2                                 \0A\09not $0                                       \0A\09and $0, $1                                 \0A\09or $2, $1                                  \0A\09sar $$63, $1                                  \0A\09", "=&{ax},=&{di},=&{si},1,2,~{dirflag},~{fpsr},~{flags}"(i64 0, i64 %4) #3, !srcloc !8
  %25 = extractvalue { i64, i64, i64 } %24, 1
  %26 = load volatile i8, ptr %6, align 1, !tbaa !3
  %27 = trunc i64 %25 to i8
  %28 = and i8 %26, %27
  store volatile i8 %28, ptr %6, align 1, !tbaa !3
  br label %._crit_edge30
}